; Function Attrs: inlinehint nounwind sspstrong uwtable
define internal fastcc i64 @vm_caller_setup_keyword_hash(ptr noundef %0, i64 noundef %1) unnamed_addr #12 {
  %3 = icmp eq i64 %1, 0
  %4 = and i64 %1, 7
  %5 = icmp ne i64 %4, 0
  %6 = or i1 %3, %5
  br i1 %6, label %rbimpl_RB_TYPE_P_fastpath.exit.thread, label %rbimpl_RB_TYPE_P_fastpath.exit, !prof !311

rbimpl_RB_TYPE_P_fastpath.exit:                   ; preds = %2
  %7 = inttoptr i64 %1 to ptr
  %8 = load i64, ptr %7, align 8, !tbaa !97
  %9 = and i64 %8, 31
  %10 = icmp eq i64 %9, 8
  br i1 %10, label %13, label %rbimpl_RB_TYPE_P_fastpath.exit.thread, !prof !327

rbimpl_RB_TYPE_P_fastpath.exit.thread:            ; preds = %2, %rbimpl_RB_TYPE_P_fastpath.exit
  %.not7 = icmp eq i64 %1, 4
  br i1 %.not7, label %36, label %11

11:                                               ; preds = %rbimpl_RB_TYPE_P_fastpath.exit.thread
  %12 = tail call i64 @rb_to_hash_type(i64 noundef %1) #21
  br label %.sink.split

13:                                               ; preds = %rbimpl_RB_TYPE_P_fastpath.exit
  %14 = ptrtoint ptr %0 to i64
  %15 = and i64 %14, 1
  %.not.i.not.i = icmp eq i64 %15, 0
  br i1 %.not.i.not.i, label %19, label %16

16:                                               ; preds = %13
  %17 = trunc i64 %14 to i32
  %18 = lshr i32 %17, 16
  br label %vm_ci_flag.exit

19:                                               ; preds = %13
  %20 = getelementptr inbounds nuw i8, ptr %0, i64 24
  %21 = load i64, ptr %20, align 8, !tbaa !169
  %22 = trunc i64 %21 to i32
  br label %vm_ci_flag.exit

vm_ci_flag.exit:                                  ; preds = %16, %19
  %.0.i8 = phi i32 [ %18, %16 ], [ %22, %19 ]
  %23 = and i32 %.0.i8, 2048
  %.not = icmp eq i32 %23, 0
  br i1 %.not, label %24, label %36

24:                                               ; preds = %vm_ci_flag.exit
  %25 = and i64 %8, 32768
  %.not.i.i.i = icmp eq i64 %25, 0
  br i1 %.not.i.i.i, label %26, label %29

26:                                               ; preds = %24
  %27 = lshr i64 %8, 16
  %28 = and i64 %27, 15
  br label %RHASH_EMPTY_P.exit

29:                                               ; preds = %24
  %30 = add i64 %1, 24
  %31 = inttoptr i64 %30 to ptr
  %32 = getelementptr inbounds nuw i8, ptr %31, i64 16
  %33 = load i64, ptr %32, align 8, !tbaa !291
  br label %RHASH_EMPTY_P.exit

RHASH_EMPTY_P.exit:                               ; preds = %26, %29
  %.0.i.i = phi i64 [ %28, %26 ], [ %33, %29 ]
  %34 = icmp eq i64 %.0.i.i, 0
  br i1 %34, label %36, label %.sink.split

.sink.split:                                      ; preds = %RHASH_EMPTY_P.exit, %11
  %.sink = phi i64 [ %12, %11 ], [ %1, %RHASH_EMPTY_P.exit ]
  %35 = tail call i64 @rb_hash_dup(i64 noundef %.sink) #21
  br label %36

36:                                               ; preds = %.sink.split, %vm_ci_flag.exit, %RHASH_EMPTY_P.exit, %rbimpl_RB_TYPE_P_fastpath.exit.thread
  %.0 = phi i64 [ 4, %rbimpl_RB_TYPE_P_fastpath.exit.thread ], [ %1, %vm_ci_flag.exit ], [ %1, %RHASH_EMPTY_P.exit ], [ %35, %.sink.split ]
  ret i64 %.0
}